target datalayout = "e-m:e-p270:32:32-p271:32:32-p272:64:64-i64:64-i128:128-f80:128-n8:16:32:64-S128"
target triple = "x86_64-pc-linux-gnu"

%struct.wtap = type { ptr, ptr, i8, i32, i32, ptr, ptr, ptr, i32, ptr, ptr, ptr, ptr, ptr, ptr, ptr, ptr, ptr, ptr, i32, i32, ptr, ptr, ptr, ptr }
%struct.lanalyzer_t = type { i64 }
%struct.wtap_rec = type { i32, i32, i32, %struct.nstime_t, i32, %struct.nstime_t, i8, %union.anon, ptr, i8, %struct.Buffer, %struct.Buffer }
%struct.nstime_t = type { i64, i32 }
%union.anon = type { %struct.wtap_packet_header }
%struct.wtap_packet_header = type { i32, i32, i32, i32, %union.wtap_pseudo_header }
%union.wtap_pseudo_header = type { %struct.erf_mc_phdr }
%struct.erf_mc_phdr = type { %struct.erf_phdr, [16 x %struct.erf_ehdr], %union.anon.1 }
%struct.erf_phdr = type { i64, i8, i8, i16, i16, i16 }
%struct.erf_ehdr = type { i64 }
%union.anon.1 = type { i32 }
%struct.Buffer = type { ptr, i64, i64, i64 }
%struct.eth_phdr = type { i32 }

@.str.5 = private unnamed_addr constant [58 x i8] c"lanalyzer: record type %u seen after trace summary record\00", align 1
@.str.6 = private unnamed_addr constant [81 x i8] c"lanalyzer: file has a %u-byte record, too small to have even a packet descriptor\00", align 1
@.str.7 = private unnamed_addr constant [50 x i8] c"lanalyzer: Record length is less than packet size\00", align 1

; Function Attrs: inlinehint nounwind null_pointer_is_valid sspstrong uwtable
define internal zeroext i16 @pletoh16(ptr noundef %0) #3 {
  %2 = alloca ptr, align 8
  store ptr %0, ptr %2, align 8
  %3 = load ptr, ptr %2, align 8
  %4 = getelementptr i8, ptr %3, i64 1
  %5 = load i8, ptr %4, align 1
  %6 = zext i8 %5 to i16
  %7 = zext i16 %6 to i32
  %8 = shl i32 %7, 8
  %9 = load ptr, ptr %2, align 8
  %10 = getelementptr i8, ptr %9, i64 0
  %11 = load i8, ptr %10, align 1
  %12 = zext i8 %11 to i16
  %13 = zext i16 %12 to i32
  %14 = shl i32 %13, 0
  %15 = or i32 %8, %14
  %16 = trunc i32 %15 to i16
  ret i16 %16
}

; Function Attrs: null_pointer_is_valid sspstrong uwtable
define internal zeroext i1 @lanalyzer_read_trace_record(ptr noundef %0, ptr noundef %1, ptr noundef %2, ptr noundef %3, ptr noundef %4) #0 {
  %6 = alloca i1, align 1
  %7 = alloca ptr, align 8
  %8 = alloca ptr, align 8
  %9 = alloca ptr, align 8
  %10 = alloca ptr, align 8
  %11 = alloca ptr, align 8
  %12 = alloca [2 x i8], align 1
  %13 = alloca [2 x i8], align 1
  %14 = alloca i16, align 2
  %15 = alloca i16, align 2
  %16 = alloca i32, align 4
  %17 = alloca i32, align 4
  %18 = alloca [32 x i8], align 16
  %19 = alloca ptr, align 8
  %20 = alloca i16, align 2
  %21 = alloca i16, align 2
  %22 = alloca i16, align 2
  %23 = alloca i16, align 2
  %24 = alloca i64, align 8
  %25 = alloca i64, align 8
  %26 = alloca i32, align 4
  store ptr %0, ptr %7, align 8
  store ptr %1, ptr %8, align 8
  store ptr %2, ptr %9, align 8
  store ptr %3, ptr %10, align 8
  store ptr %4, ptr %11, align 8
  call void @llvm.lifetime.start.p0(i64 2, ptr %12) #11
  call void @llvm.lifetime.start.p0(i64 2, ptr %13) #11
  call void @llvm.lifetime.start.p0(i64 2, ptr %14) #11
  call void @llvm.lifetime.start.p0(i64 2, ptr %15) #11
  call void @llvm.lifetime.start.p0(i64 4, ptr %16) #11
  call void @llvm.lifetime.start.p0(i64 4, ptr %17) #11
  call void @llvm.lifetime.start.p0(i64 32, ptr %18) #11
  call void @llvm.lifetime.start.p0(i64 8, ptr %19) #11
  call void @llvm.lifetime.start.p0(i64 2, ptr %20) #11
  call void @llvm.lifetime.start.p0(i64 2, ptr %21) #11
  call void @llvm.lifetime.start.p0(i64 2, ptr %22) #11
  call void @llvm.lifetime.start.p0(i64 2, ptr %23) #11
  call void @llvm.lifetime.start.p0(i64 8, ptr %24) #11
  call void @llvm.lifetime.start.p0(i64 8, ptr %25) #11
  %27 = load ptr, ptr %8, align 8
  %28 = getelementptr inbounds [2 x i8], ptr %12, i64 0, i64 0
  %29 = load ptr, ptr %10, align 8
  %30 = load ptr, ptr %11, align 8
  %31 = call zeroext i1 @wtap_read_bytes_or_eof(ptr noundef %27, ptr noundef %28, i32 noundef 2, ptr noundef %29, ptr noundef %30)
  br i1 %31, label %33, label %32

32:                                               ; preds = %5
  store i1 false, ptr %6, align 1
  store i32 1, ptr %26, align 4
  br label %170

33:                                               ; preds = %5
  %34 = load ptr, ptr %8, align 8
  %35 = getelementptr inbounds [2 x i8], ptr %13, i64 0, i64 0
  %36 = load ptr, ptr %10, align 8
  %37 = load ptr, ptr %11, align 8
  %38 = call zeroext i1 @wtap_read_bytes(ptr noundef %34, ptr noundef %35, i32 noundef 2, ptr noundef %36, ptr noundef %37)
  br i1 %38, label %40, label %39

39:                                               ; preds = %33
  store i1 false, ptr %6, align 1
  store i32 1, ptr %26, align 4
  br label %170

40:                                               ; preds = %33
  %41 = getelementptr inbounds [2 x i8], ptr %12, i64 0, i64 0
  %42 = call zeroext i16 @pletoh16(ptr noundef %41)
  store i16 %42, ptr %14, align 2
  %43 = getelementptr inbounds [2 x i8], ptr %13, i64 0, i64 0
  %44 = call zeroext i16 @pletoh16(ptr noundef %43)
  store i16 %44, ptr %15, align 2
  %45 = load i16, ptr %14, align 2
  %46 = zext i16 %45 to i32
  %47 = icmp ne i32 %46, 4101
  br i1 %47, label %48, label %54

48:                                               ; preds = %40
  %49 = load ptr, ptr %10, align 8
  store i32 -13, ptr %49, align 4
  %50 = load i16, ptr %14, align 2
  %51 = zext i16 %50 to i32
  %52 = call noalias ptr (ptr, ptr, ...) @wmem_strdup_printf(ptr noundef null, ptr noundef @.str.5, i32 noundef %51)
  %53 = load ptr, ptr %11, align 8
  store ptr %52, ptr %53, align 8
  store i1 false, ptr %6, align 1
  store i32 1, ptr %26, align 4
  br label %170

54:                                               ; preds = %40
  %55 = load i16, ptr %15, align 2
  %56 = zext i16 %55 to i32
  %57 = icmp slt i32 %56, 32
  br i1 %57, label %58, label %64

58:                                               ; preds = %54
  %59 = load ptr, ptr %10, align 8
  store i32 -13, ptr %59, align 4
  %60 = load i16, ptr %15, align 2
  %61 = zext i16 %60 to i32
  %62 = call noalias ptr (ptr, ptr, ...) @wmem_strdup_printf(ptr noundef null, ptr noundef @.str.6, i32 noundef %61)
  %63 = load ptr, ptr %11, align 8
  store ptr %62, ptr %63, align 8
  store i1 false, ptr %6, align 1
  store i32 1, ptr %26, align 4
  br label %170

64:                                               ; preds = %54
  %65 = load i16, ptr %15, align 2
  %66 = zext i16 %65 to i32
  %67 = sub i32 %66, 32
  store i32 %67, ptr %16, align 4
  %68 = load ptr, ptr %8, align 8
  %69 = getelementptr inbounds [32 x i8], ptr %18, i64 0, i64 0
  %70 = load ptr, ptr %10, align 8
  %71 = load ptr, ptr %11, align 8
  %72 = call zeroext i1 @wtap_read_bytes(ptr noundef %68, ptr noundef %69, i32 noundef 32, ptr noundef %70, ptr noundef %71)
  br i1 %72, label %74, label %73

73:                                               ; preds = %64
  store i1 false, ptr %6, align 1
  store i32 1, ptr %26, align 4
  br label %170

74:                                               ; preds = %64
  %75 = getelementptr [32 x i8], ptr %18, i64 0, i64 4
  %76 = call zeroext i16 @pletoh16(ptr noundef %75)
  store i16 %76, ptr %23, align 2
  %77 = getelementptr [32 x i8], ptr %18, i64 0, i64 6
  %78 = call zeroext i16 @pletoh16(ptr noundef %77)
  %79 = zext i16 %78 to i32
  store i32 %79, ptr %17, align 4
  %80 = load i32, ptr %17, align 4
  %81 = load i32, ptr %16, align 4
  %82 = icmp sgt i32 %80, %81
  br i1 %82, label %83, label %87

83:                                               ; preds = %74
  %84 = load ptr, ptr %10, align 8
  store i32 -13, ptr %84, align 4
  %85 = call noalias ptr @g_strdup(ptr noundef @.str.7)
  %86 = load ptr, ptr %11, align 8
  store ptr %85, ptr %86, align 8
  store i1 false, ptr %6, align 1
  store i32 1, ptr %26, align 4
  br label %170

87:                                               ; preds = %74
  %88 = load ptr, ptr %9, align 8
  %89 = getelementptr inbounds nuw %struct.wtap_rec, ptr %88, i32 0, i32 0
  store i32 0, ptr %89, align 8
  %90 = call ptr @wtap_block_create(i32 noundef 5)
  %91 = load ptr, ptr %9, align 8
  %92 = getelementptr inbounds nuw %struct.wtap_rec, ptr %91, i32 0, i32 8
  store ptr %90, ptr %92, align 8
  %93 = load ptr, ptr %9, align 8
  %94 = getelementptr inbounds nuw %struct.wtap_rec, ptr %93, i32 0, i32 1
  store i32 3, ptr %94, align 4
  %95 = getelementptr [32 x i8], ptr %18, i64 0, i64 8
  %96 = call zeroext i16 @pletoh16(ptr noundef %95)
  store i16 %96, ptr %20, align 2
  %97 = getelementptr [32 x i8], ptr %18, i64 0, i64 10
  %98 = call zeroext i16 @pletoh16(ptr noundef %97)
  store i16 %98, ptr %21, align 2
  %99 = getelementptr [32 x i8], ptr %18, i64 0, i64 12
  %100 = call zeroext i16 @pletoh16(ptr noundef %99)
  store i16 %100, ptr %22, align 2
  %101 = load i16, ptr %20, align 2
  %102 = zext i16 %101 to i64
  %103 = shl i64 %102, 0
  %104 = load i16, ptr %21, align 2
  %105 = zext i16 %104 to i64
  %106 = shl i64 %105, 16
  %107 = add i64 %103, %106
  %108 = load i16, ptr %22, align 2
  %109 = zext i16 %108 to i64
  %110 = shl i64 %109, 32
  %111 = add i64 %107, %110
  store i64 %111, ptr %24, align 8
  %112 = load i64, ptr %24, align 8
  %113 = udiv i64 %112, 2000000
  store i64 %113, ptr %25, align 8
  %114 = load ptr, ptr %7, align 8
  %115 = getelementptr inbounds nuw %struct.wtap, ptr %114, i32 0, i32 13
  %116 = load ptr, ptr %115, align 8
  store ptr %116, ptr %19, align 8
  %117 = load i64, ptr %25, align 8
  %118 = load ptr, ptr %19, align 8
  %119 = getelementptr inbounds nuw %struct.lanalyzer_t, ptr %118, i32 0, i32 0
  %120 = load i64, ptr %119, align 8
  %121 = add i64 %117, %120
  %122 = load ptr, ptr %9, align 8
  %123 = getelementptr inbounds nuw %struct.wtap_rec, ptr %122, i32 0, i32 3
  %124 = getelementptr inbounds nuw %struct.nstime_t, ptr %123, i32 0, i32 0
  store i64 %121, ptr %124, align 8
  %125 = load i64, ptr %24, align 8
  %126 = load i64, ptr %25, align 8
  %127 = mul i64 %126, 2000000
  %128 = sub i64 %125, %127
  %129 = trunc i64 %128 to i32
  %130 = mul i32 %129, 500
  %131 = load ptr, ptr %9, align 8
  %132 = getelementptr inbounds nuw %struct.wtap_rec, ptr %131, i32 0, i32 3
  %133 = getelementptr inbounds nuw %struct.nstime_t, ptr %132, i32 0, i32 1
  store i32 %130, ptr %133, align 8
  %134 = load i16, ptr %23, align 2
  %135 = zext i16 %134 to i32
  %136 = sub i32 %135, 4
  %137 = load i32, ptr %17, align 4
  %138 = icmp sge i32 %136, %137
  br i1 %138, label %139, label %144

139:                                              ; preds = %87
  %140 = load i16, ptr %23, align 2
  %141 = zext i16 %140 to i32
  %142 = sub i32 %141, 4
  %143 = trunc i32 %142 to i16
  store i16 %143, ptr %23, align 2
  br label %144

144:                                              ; preds = %139, %87
  %145 = load i16, ptr %23, align 2
  %146 = zext i16 %145 to i32
  %147 = load ptr, ptr %9, align 8
  %148 = getelementptr inbounds nuw %struct.wtap_rec, ptr %147, i32 0, i32 7
  %149 = getelementptr inbounds nuw %struct.wtap_packet_header, ptr %148, i32 0, i32 1
  store i32 %146, ptr %149, align 4
  %150 = load i32, ptr %17, align 4
  %151 = load ptr, ptr %9, align 8
  %152 = getelementptr inbounds nuw %struct.wtap_rec, ptr %151, i32 0, i32 7
  %153 = getelementptr inbounds nuw %struct.wtap_packet_header, ptr %152, i32 0, i32 0
  store i32 %150, ptr %153, align 8
  %154 = load ptr, ptr %7, align 8
  %155 = getelementptr inbounds nuw %struct.wtap, ptr %154, i32 0, i32 19
  %156 = load i32, ptr %155, align 8
  switch i32 %156, label %162 [
    i32 1, label %157
  ]

157:                                              ; preds = %144
  %158 = load ptr, ptr %9, align 8
  %159 = getelementptr inbounds nuw %struct.wtap_rec, ptr %158, i32 0, i32 7
  %160 = getelementptr inbounds nuw %struct.wtap_packet_header, ptr %159, i32 0, i32 4
  %161 = getelementptr inbounds nuw %struct.eth_phdr, ptr %160, i32 0, i32 0
  store i32 0, ptr %161, align 8
  br label %162

162:                                              ; preds = %144, %157
  %163 = load ptr, ptr %8, align 8
  %164 = load ptr, ptr %9, align 8
  %165 = getelementptr inbounds nuw %struct.wtap_rec, ptr %164, i32 0, i32 11
  %166 = load i32, ptr %17, align 4
  %167 = load ptr, ptr %10, align 8
  %168 = load ptr, ptr %11, align 8
  %169 = call zeroext i1 @wtap_read_bytes_buffer(ptr noundef %163, ptr noundef %165, i32 noundef %166, ptr noundef %167, ptr noundef %168)
  store i1 %169, ptr %6, align 1
  store i32 1, ptr %26, align 4
  br label %170

170:                                              ; preds = %162, %83, %73, %58, %48, %39, %32
  call void @llvm.lifetime.end.p0(i64 8, ptr %25) #11
  call void @llvm.lifetime.end.p0(i64 8, ptr %24) #11
  call void @llvm.lifetime.end.p0(i64 2, ptr %23) #11
  call void @llvm.lifetime.end.p0(i64 2, ptr %22) #11
  call void @llvm.lifetime.end.p0(i64 2, ptr %21) #11
  call void @llvm.lifetime.end.p0(i64 2, ptr %20) #11
  call void @llvm.lifetime.end.p0(i64 8, ptr %19) #11
  call void @llvm.lifetime.end.p0(i64 32, ptr %18) #11
  call void @llvm.lifetime.end.p0(i64 4, ptr %17) #11
  call void @llvm.lifetime.end.p0(i64 4, ptr %16) #11
  call void @llvm.lifetime.end.p0(i64 2, ptr %15) #11
  call void @llvm.lifetime.end.p0(i64 2, ptr %14) #11
  call void @llvm.lifetime.end.p0(i64 2, ptr %13) #11
  call void @llvm.lifetime.end.p0(i64 2, ptr %12) #11
  %171 = load i1, ptr %6, align 1
  ret i1 %171
}