; Function Attrs: null_pointer_is_valid sspstrong uwtable
define internal fastcc zeroext i1 @lanalyzer_read_trace_record(ptr noundef readonly captures(none) %0, ptr noundef %1, ptr noundef %2, ptr noundef %3, ptr noundef %4) unnamed_addr #0 {
  %6 = alloca [2 x i8], align 1
  %7 = alloca [2 x i8], align 1
  %8 = alloca [32 x i8], align 16
  call void @llvm.lifetime.start.p0(i64 2, ptr nonnull %6) #10
  call void @llvm.lifetime.start.p0(i64 2, ptr nonnull %7) #10
  call void @llvm.lifetime.start.p0(i64 32, ptr nonnull %8) #10
  %9 = call zeroext i1 @wtap_read_bytes_or_eof(ptr noundef %1, ptr noundef nonnull %6, i32 noundef 2, ptr noundef %3, ptr noundef %4)
  br i1 %9, label %10, label %87

10:                                               ; preds = %5
  %11 = call zeroext i1 @wtap_read_bytes(ptr noundef %1, ptr noundef nonnull %7, i32 noundef 2, ptr noundef %3, ptr noundef %4)
  br i1 %11, label %12, label %87

12:                                               ; preds = %10
  %.val67 = load i8, ptr %6, align 1
  %13 = getelementptr inbounds nuw i8, ptr %6, i64 1
  %.val68 = load i8, ptr %13, align 1
  %14 = zext i8 %.val68 to i16
  %15 = shl nuw i16 %14, 8
  %16 = zext i8 %.val67 to i16
  %17 = or disjoint i16 %15, %16
  %.not = icmp eq i16 %17, 4101
  br i1 %.not, label %21, label %18

18:                                               ; preds = %12
  %19 = zext i16 %17 to i32
  store i32 -13, ptr %3, align 4
  %20 = call noalias ptr (ptr, ptr, ...) @wmem_strdup_printf(ptr noundef null, ptr noundef nonnull @.str.5, i32 noundef %19)
  store ptr %20, ptr %4, align 8
  br label %87

21:                                               ; preds = %12
  %22 = getelementptr inbounds nuw i8, ptr %7, i64 1
  %.val66 = load i8, ptr %22, align 1
  %23 = zext i8 %.val66 to i16
  %24 = shl nuw i16 %23, 8
  %.val65 = load i8, ptr %7, align 1
  %25 = zext i8 %.val65 to i16
  %26 = or disjoint i16 %24, %25
  %27 = zext i16 %26 to i32
  %28 = icmp ult i16 %26, 32
  br i1 %28, label %29, label %31

29:                                               ; preds = %21
  store i32 -13, ptr %3, align 4
  %30 = call noalias ptr (ptr, ptr, ...) @wmem_strdup_printf(ptr noundef null, ptr noundef nonnull @.str.6, i32 noundef %27)
  store ptr %30, ptr %4, align 8
  br label %87

31:                                               ; preds = %21
  %32 = call zeroext i1 @wtap_read_bytes(ptr noundef %1, ptr noundef nonnull %8, i32 noundef 32, ptr noundef %3, ptr noundef %4)
  br i1 %32, label %33, label %87

33:                                               ; preds = %31
  %34 = add nsw i32 %27, -32
  %35 = getelementptr inbounds nuw i8, ptr %8, i64 6
  %.val61 = load i8, ptr %35, align 2
  %36 = getelementptr inbounds nuw i8, ptr %8, i64 7
  %.val62 = load i8, ptr %36, align 1
  %37 = zext i8 %.val62 to i32
  %38 = shl nuw nsw i32 %37, 8
  %39 = zext i8 %.val61 to i32
  %40 = or disjoint i32 %38, %39
  %41 = icmp slt i32 %34, %40
  br i1 %41, label %42, label %44

42:                                               ; preds = %33
  store i32 -13, ptr %3, align 4
  %43 = call noalias ptr @g_strdup(ptr noundef nonnull @.str.7)
  store ptr %43, ptr %4, align 8
  br label %87

44:                                               ; preds = %33
  %45 = getelementptr inbounds nuw i8, ptr %8, i64 5
  %.val64 = load i8, ptr %45, align 1
  %46 = zext i8 %.val64 to i16
  %47 = shl nuw i16 %46, 8
  %48 = getelementptr inbounds nuw i8, ptr %8, i64 4
  %.val63 = load i8, ptr %48, align 4
  %49 = zext i8 %.val63 to i16
  %50 = or disjoint i16 %47, %49
  store i32 0, ptr %2, align 8
  %51 = call ptr @wtap_block_create(i32 noundef 5)
  %52 = getelementptr inbounds nuw i8, ptr %2, i64 232
  store ptr %51, ptr %52, align 8
  %53 = getelementptr inbounds nuw i8, ptr %2, i64 4
  store i32 3, ptr %53, align 4
  %54 = getelementptr inbounds nuw i8, ptr %8, i64 8
  %.val59 = load i16, ptr %54, align 8
  %55 = zext i16 %.val59 to i64
  %56 = getelementptr inbounds nuw i8, ptr %8, i64 10
  %.val57 = load i16, ptr %56, align 2
  %57 = zext i16 %.val57 to i64
  %58 = shl nuw nsw i64 %57, 16
  %59 = getelementptr inbounds nuw i8, ptr %8, i64 12
  %.val = load i16, ptr %59, align 4
  %60 = zext i16 %.val to i64
  %61 = shl nuw nsw i64 %60, 32
  %62 = or disjoint i64 %58, %55
  %63 = or disjoint i64 %62, %61
  %64 = udiv i64 %63, 2000000
  %65 = getelementptr inbounds nuw i8, ptr %0, i64 96
  %66 = load ptr, ptr %65, align 8
  %67 = load i64, ptr %66, align 8
  %68 = add i64 %64, %67
  %69 = getelementptr inbounds nuw i8, ptr %2, i64 16
  store i64 %68, ptr %69, align 8
  %.neg = mul nuw nsw i64 %64, 4292967296
  %70 = add nuw nsw i64 %.neg, %62
  %71 = trunc i64 %70 to i32
  %72 = mul i32 %71, 500
  %73 = getelementptr inbounds nuw i8, ptr %2, i64 24
  store i32 %72, ptr %73, align 8
  %74 = zext i16 %50 to i32
  %75 = add nsw i32 %74, -4
  %.not55 = icmp slt i32 %75, %40
  %76 = trunc nuw i32 %75 to i16
  %spec.select = select i1 %.not55, i16 %50, i16 %76
  %77 = zext i16 %spec.select to i32
  %78 = getelementptr inbounds nuw i8, ptr %2, i64 64
  %79 = getelementptr inbounds nuw i8, ptr %2, i64 68
  store i32 %77, ptr %79, align 4
  store i32 %40, ptr %78, align 8
  %80 = getelementptr inbounds nuw i8, ptr %0, i64 144
  %81 = load i32, ptr %80, align 8
  %cond = icmp eq i32 %81, 1
  br i1 %cond, label %82, label %84

82:                                               ; preds = %44
  %83 = getelementptr inbounds nuw i8, ptr %2, i64 80
  store i32 0, ptr %83, align 8
  br label %84

84:                                               ; preds = %44, %82
  %85 = getelementptr inbounds nuw i8, ptr %2, i64 280
  %86 = call zeroext i1 @wtap_read_bytes_buffer(ptr noundef %1, ptr noundef nonnull %85, i32 noundef %40, ptr noundef %3, ptr noundef %4)
  br label %87

87:                                               ; preds = %31, %10, %5, %84, %42, %29, %18
  %.0 = phi i1 [ false, %18 ], [ false, %29 ], [ false, %42 ], [ %86, %84 ], [ false, %5 ], [ false, %10 ], [ false, %31 ]
  call void @llvm.lifetime.end.p0(i64 32, ptr nonnull %8) #10
  call void @llvm.lifetime.end.p0(i64 2, ptr nonnull %7) #10
  call void @llvm.lifetime.end.p0(i64 2, ptr nonnull %6) #10
  ret i1 %.0
}